{
   Main_UninterestingCallReactionMap_Still_Reachable
   Memcheck:Leak
   match-leak-kinds: reachable
   fun:_Znwm
   fun:_ZN7testing12_GLOBAL__N_128UninterestingCallReactionMapEv
   fun:_ZN7testing12_GLOBAL__N_131SetReactionOnUninterestingCallsEmNS_8internal12CallReactionE
   fun:_ZN7testing4Mock23AllowUninterestingCallsEm
   fun:_ZN7testing8internal12NiceMockImplIN17Information_Model7testing10DeviceMockEEC1Ev
   fun:_ZN7testing8NiceMockIN17Information_Model7testing10DeviceMockEEC1IRKNSt7__cxx1112basic_stringIcSt11char_traitsIcESaIcEEENS2_12FullMetaInfoEJEEEOT_OT0_DpOT1_
   fun:_ZSt11make_uniqueIN7testing8NiceMockIN17Information_Model7testing10DeviceMockEEEJRKNSt7__cxx1112basic_stringIcSt11char_traitsIcESaIcEEENS3_12FullMetaInfoEEENSt8__detail9_MakeUniqIT_E15__single_objectEDpOT0_
   fun:_ZN17Information_Model7testing11MockBuilder13setDeviceInfoERKNSt7__cxx1112basic_stringIcSt11char_traitsIcESaIcEEERKNS_9BuildInfoE
   fun:_Z13buildVariantARKNSt7__cxx1112basic_stringIcSt11char_traitsIcESaIcEEE
   fun:_Z15registerDevicesRKSt6vectorINSt7__cxx1112basic_stringIcSt11char_traitsIcESaIcEEESaIS5_EERKSt10shared_ptrI11EventSourceE
   fun:main
}
{
   Main_Hashtable_CallReaction_Still_Reachable
   Memcheck:Leak
   match-leak-kinds: reachable
   fun:_Znwm
   fun:_ZNSt15__new_allocatorIPNSt8__detail15_Hash_node_baseEE8allocateEmPKv
   fun:_ZNSt16allocator_traitsISaIPNSt8__detail15_Hash_node_baseEEE8allocateERS3_m
   fun:_ZNSt8__detail16_Hashtable_allocISaINS_10_Hash_nodeISt4pairIKmN7testing8internal12CallReactionEELb0EEEEE19_M_allocate_bucketsEm
   fun:_ZNSt10_HashtableImSt4pairIKmN7testing8internal12CallReactionEESaIS5_ENSt8__detail10_Select1stESt8equal_toImESt4hashImENS7_18_Mod_range_hashingENS7_20_Default_ranged_hashENS7_20_Prime_rehash_policyENS7_17_Hashtable_traitsILb0ELb0ELb1EEEE19_M_allocate_bucketsEm
   fun:_ZNSt10_HashtableImSt4pairIKmN7testing8internal12CallReactionEESaIS5_ENSt8__detail10_Select1stESt8equal_toImESt4hashImENS7_18_Mod_range_hashingENS7_20_Default_ranged_hashENS7_20_Prime_rehash_policyENS7_17_Hashtable_traitsILb0ELb0ELb1EEEE13_M_rehash_auxEmSt17integral_constantIbLb1EE
   fun:_ZNSt10_HashtableImSt4pairIKmN7testing8internal12CallReactionEESaIS5_ENSt8__detail10_Select1stESt8equal_toImESt4hashImENS7_18_Mod_range_hashingENS7_20_Default_ranged_hashENS7_20_Prime_rehash_policyENS7_17_Hashtable_traitsILb0ELb0ELb1EEEE9_M_rehashEmRS1_
   fun:_ZNSt10_HashtableImSt4pairIKmN7testing8internal12CallReactionEESaIS5_ENSt8__detail10_Select1stESt8equal_toImESt4hashImENS7_18_Mod_range_hashingENS7_20_Default_ranged_hashENS7_20_Prime_rehash_policyENS7_17_Hashtable_traitsILb0ELb0ELb1EEEE21_M_insert_unique_nodeEmmPNS7_10_Hash_nodeIS5_Lb0EEEm
   fun:_ZNSt8__detail9_Map_baseImSt4pairIKmN7testing8internal12CallReactionEESaIS6_ENS_10_Select1stESt8equal_toImESt4hashImENS_18_Mod_range_hashingENS_20_Default_ranged_hashENS_20_Prime_rehash_policyENS_17_Hashtable_traitsILb0ELb0ELb1EEELb1EEixERS2_
   fun:_ZNSt13unordered_mapImN7testing8internal12CallReactionESt4hashImESt8equal_toImESaISt4pairIKmS2_EEEixERS8_
   fun:_ZN7testing12_GLOBAL__N_131SetReactionOnUninterestingCallsEmNS_8internal12CallReactionE
   fun:_ZN7testing4Mock23AllowUninterestingCallsEm
   fun:_ZN7testing8internal12NiceMockImplIN17Information_Model7testing12CallableMockEEC1Ev
   fun:_ZN7testing8NiceMockIN17Information_Model7testing12CallableMockEEC1IRNS1_8DataTypeERKSt8functionIFvRKSt13unordered_mapImSt8optionalISt7variantIJblmdNS1_9TimestampESt6vectorIhSaIhEENSt7__cxx1112basic_stringIcSt11char_traitsIcESaIcEEEEEESt4hashImESt8equal_toImESaISt4pairIKmSN_EEEEEJRKS8_IFNS1_12ResultFutureESY_EERKS8_IFvmEERKS9_ImNS1_13ParameterTypeESP_SR_SaISS_IST_S1C_EEEEEEOT_OT0_DpOT1_
   fun:_ZSt10_ConstructIN7testing8NiceMockIN17Information_Model7testing12CallableMockEEEJRNS2_8DataTypeERKSt8functionIFvRKSt13unordered_mapImSt8optionalISt7variantIJblmdNS2_9TimestampESt6vectorIhSaIhEENSt7__cxx1112basic_stringIcSt11char_traitsIcESaIcEEEEEESt4hashImESt8equal_toImESaISt4pairIKmSN_EEEEERKS8_IFNS2_12ResultFutureESY_EERKS8_IFvmEERKS9_ImNS2_13ParameterTypeESP_SR_SaISS_IST_S1C_EEEEEvPT_DpOT0_
   fun:_ZNSt16allocator_traitsISaIvEE9constructIN7testing8NiceMockIN17Information_Model7testing12CallableMockEEEJRNS5_8DataTypeERKSt8functionIFvRKSt13unordered_mapImSt8optionalISt7variantIJblmdNS5_9TimestampESt6vectorIhSaIhEENSt7__cxx1112basic_stringIcSt11char_traitsIcESaIcEEEEEESt4hashImESt8equal_toImESaISt4pairIKmSQ_EEEEERKSB_IFNS5_12ResultFutureES11_EERKSB_IFvmEERKSC_ImNS5_13ParameterTypeESS_SU_SaISV_ISW_S1F_EEEEEEvRS0_PT_DpOT0_
   fun:_ZNSt23_Sp_counted_ptr_inplaceIN7testing8NiceMockIN17Information_Model7testing12CallableMockEEESaIvELN9__gnu_cxx12_Lock_policyE2EEC1IJRNS2_8DataTypeERKSt8functionIFvRKSt13unordered_mapImSt8optionalISt7variantIJblmdNS2_9TimestampESt6vectorIhSaIhEENSt7__cxx1112basic_stringIcSt11char_traitsIcESaIcEEEEEESt4hashImESt8equal_toImESaISt4pairIKmSS_EEEEERKSD_IFNS2_12ResultFutureES13_EERKSD_IFvmEERKSE_ImNS2_13ParameterTypeESU_SW_SaISX_ISY_S1H_EEEEEES6_DpOT_
   fun:_ZNSt14__shared_countILN9__gnu_cxx12_Lock_policyE2EEC1IN7testing8NiceMockIN17Information_Model7testing12CallableMockEEESaIvEJRNS6_8DataTypeERKSt8functionIFvRKSt13unordered_mapImSt8optionalISt7variantIJblmdNS6_9TimestampESt6vectorIhSaIhEENSt7__cxx1112basic_stringIcSt11char_traitsIcESaIcEEEEEESt4hashImESt8equal_toImESaISt4pairIKmSS_EEEEERKSD_IFNS6_12ResultFutureES13_EERKSD_IFvmEERKSE_ImNS6_13ParameterTypeESU_SW_SaISX_ISY_S1H_EEEEEERPT_St20_Sp_alloc_shared_tagIT0_EDpOT1_
   fun:_ZNSt12__shared_ptrIN7testing8NiceMockIN17Information_Model7testing12CallableMockEEELN9__gnu_cxx12_Lock_policyE2EEC1ISaIvEJRNS2_8DataTypeERKSt8functionIFvRKSt13unordered_mapImSt8optionalISt7variantIJblmdNS2_9TimestampESt6vectorIhSaIhEENSt7__cxx1112basic_stringIcSt11char_traitsIcESaIcEEEEEESt4hashImESt8equal_toImESaISt4pairIKmSS_EEEEERKSD_IFNS2_12ResultFutureES13_EERKSD_IFvmEERKSE_ImNS2_13ParameterTypeESU_SW_SaISX_ISY_S1H_EEEEEESt20_Sp_alloc_shared_tagIT_EDpOT0_
   fun:_ZNSt10shared_ptrIN7testing8NiceMockIN17Information_Model7testing12CallableMockEEEEC1ISaIvEJRNS2_8DataTypeERKSt8functionIFvRKSt13unordered_mapImSt8optionalISt7variantIJblmdNS2_9TimestampESt6vectorIhSaIhEENSt7__cxx1112basic_stringIcSt11char_traitsIcESaIcEEEEEESt4hashImESt8equal_toImESaISt4pairIKmSQ_EEEEERKSB_IFNS2_12ResultFutureES11_EERKSB_IFvmEERKSC_ImNS2_13ParameterTypeESS_SU_SaISV_ISW_S1F_EEEEEESt20_Sp_alloc_shared_tagIT_EDpOT0_
   fun:_ZSt11make_sharedIN7testing8NiceMockIN17Information_Model7testing12CallableMockEEEJRNS2_8DataTypeERKSt8functionIFvRKSt13unordered_mapImSt8optionalISt7variantIJblmdNS2_9TimestampESt6vectorIhSaIhEENSt7__cxx1112basic_stringIcSt11char_traitsIcESaIcEEEEEESt4hashImESt8equal_toImESaISt4pairIKmSN_EEEEERKS8_IFNS2_12ResultFutureESY_EERKS8_IFvmEERKS9_ImNS2_13ParameterTypeESP_SR_SaISS_IST_S1C_EEEEESt10shared_ptrINSt9enable_ifIXntsrSt8is_arrayIT_E5valueES1L_E4typeEEDpOT0_
   fun:_ZN17Information_Model7testing11MockBuilder11addCallableERKNSt7__cxx1112basic_stringIcSt11char_traitsIcESaIcEEERKNS_9BuildInfoENS_8DataTypeERKSt8functionIFvRKSt13unordered_mapImSt8optionalISt7variantIJblmdNS_9TimestampESt6vectorIhSaIhEES7_EEESt4hashImESt8equal_toImESaISt4pairIKmSN_EEEEERKSE_IFNS_12ResultFutureESY_EERKSE_IFvmEERKSF_ImNS_13ParameterTypeESP_SR_SaISS_IST_S1C_EEE
   fun:_ZN17Information_Model7testing11MockBuilder11addCallableERKNS_9BuildInfoENS_8DataTypeERKSt8functionIFvRKSt13unordered_mapImSt8optionalISt7variantIJblmdNS_9TimestampESt6vectorIhSaIhEENSt7__cxx1112basic_stringIcSt11char_traitsIcESaIcEEEEEESt4hashImESt8equal_toImESaISt4pairIKmSL_EEEEERKS6_IFNS_12ResultFutureESW_EERKS6_IFvmEERKS7_ImNS_13ParameterTypeESN_SP_SaISQ_ISR_S1A_EEE
   fun:_Z13buildVariantBRKNSt7__cxx1112basic_stringIcSt11char_traitsIcESaIcEEE
   fun:_Z15registerDevicesRKSt6vectorINSt7__cxx1112basic_stringIcSt11char_traitsIcESaIcEEESaIS5_EERKSt10shared_ptrI11EventSourceE
   fun:main
}